target datalayout = "e-m:e-p270:32:32-p271:32:32-p272:64:64-i64:64-i128:128-f80:128-n8:16:32:64-S128"
target triple = "x86_64-unknown-linux-gnu"

%class.aiColor4t = type { float, float, float, float }
%struct.aiScene = type { i32, ptr, i32, ptr, i32, ptr, i32, ptr, i32, ptr, i32, ptr, i32, ptr, ptr, %struct.aiString, i32, ptr, ptr }
%struct.aiString = type { i32, [1024 x i8] }

@.str.26 = private unnamed_addr constant [16 x i8] c"DefaultMaterial\00", align 1
@.str.27 = private unnamed_addr constant [10 x i8] c"?mat.name\00", align 1
@.str.28 = private unnamed_addr constant [13 x i8] c"$clr.diffuse\00", align 1
@.str.29 = private unnamed_addr constant [14 x i8] c"$clr.specular\00", align 1
@.str.30 = private unnamed_addr constant [13 x i8] c"$clr.ambient\00", align 1

; Function Attrs: mustprogress nounwind uwtable
define linkonce_odr hidden noundef i32 @_Z29ai_real_to_property_type_infof(float noundef %0) #0 comdat {
entry:
  %.addr = alloca float, align 4
  store float %0, ptr %.addr, align 4
  ret i32 1
}

; Function Attrs: mustprogress uwtable
define linkonce_odr noundef i32 @_ZN10aiMaterial11AddPropertyEPK9aiColor4tIfEjPKcjj(ptr noundef nonnull align 8 dereferenceable(16) %this, ptr noundef %pInput, i32 noundef %pNumValues, ptr noundef %pKey, i32 noundef %type, i32 noundef %index) #3 comdat align 2 {
entry:
  %this.addr = alloca ptr, align 8
  %pInput.addr = alloca ptr, align 8
  %pNumValues.addr = alloca i32, align 4
  %pKey.addr = alloca ptr, align 8
  %type.addr = alloca i32, align 4
  %index.addr = alloca i32, align 4
  store ptr %this, ptr %this.addr, align 8
  store ptr %pInput, ptr %pInput.addr, align 8
  store i32 %pNumValues, ptr %pNumValues.addr, align 4
  store ptr %pKey, ptr %pKey.addr, align 8
  store i32 %type, ptr %type.addr, align 4
  store i32 %index, ptr %index.addr, align 4
  %this1 = load ptr, ptr %this.addr, align 8
  %0 = load ptr, ptr %pInput.addr, align 8
  %1 = load i32, ptr %pNumValues.addr, align 4
  %conv = zext i32 %1 to i64
  %mul = mul i64 %conv, 16
  %conv2 = trunc i64 %mul to i32
  %2 = load ptr, ptr %pKey.addr, align 8
  %3 = load i32, ptr %type.addr, align 4
  %4 = load i32, ptr %index.addr, align 4
  %5 = load ptr, ptr %pInput.addr, align 8
  %a = getelementptr inbounds %class.aiColor4t, ptr %5, i32 0, i32 3
  %6 = load float, ptr %a, align 4
  %call = call noundef i32 @_Z29ai_real_to_property_type_infof(float noundef %6)
  %call3 = call noundef i32 @_ZN10aiMaterial17AddBinaryPropertyEPKvjPKcjj18aiPropertyTypeInfo(ptr noundef nonnull align 8 dereferenceable(16) %this1, ptr noundef %0, i32 noundef %conv2, ptr noundef %2, i32 noundef %3, i32 noundef %4, i32 noundef %call)
  ret i32 %call3
}

; Function Attrs: mustprogress nounwind uwtable
define linkonce_odr hidden void @_ZN9aiColor4tIfEC2Effff(ptr noundef nonnull align 4 dereferenceable(16) %this, float noundef %_r, float noundef %_g, float noundef %_b, float noundef %_a) unnamed_addr #0 comdat align 2 {
entry:
  %this.addr = alloca ptr, align 8
  %_r.addr = alloca float, align 4
  %_g.addr = alloca float, align 4
  %_b.addr = alloca float, align 4
  %_a.addr = alloca float, align 4
  store ptr %this, ptr %this.addr, align 8
  store float %_r, ptr %_r.addr, align 4
  store float %_g, ptr %_g.addr, align 4
  store float %_b, ptr %_b.addr, align 4
  store float %_a, ptr %_a.addr, align 4
  %this1 = load ptr, ptr %this.addr, align 8
  %r = getelementptr inbounds %class.aiColor4t, ptr %this1, i32 0, i32 0
  %0 = load float, ptr %_r.addr, align 4
  store float %0, ptr %r, align 4
  %g = getelementptr inbounds %class.aiColor4t, ptr %this1, i32 0, i32 1
  %1 = load float, ptr %_g.addr, align 4
  store float %1, ptr %g, align 4
  %b = getelementptr inbounds %class.aiColor4t, ptr %this1, i32 0, i32 2
  %2 = load float, ptr %_b.addr, align 4
  store float %2, ptr %b, align 4
  %a = getelementptr inbounds %class.aiColor4t, ptr %this1, i32 0, i32 3
  %3 = load float, ptr %_a.addr, align 4
  store float %3, ptr %a, align 4
  ret void
}

; Function Attrs: mustprogress nounwind uwtable
define linkonce_odr hidden void @_ZN8aiString3SetEPKc(ptr noundef nonnull align 4 dereferenceable(1028) %this, ptr noundef %sz) #0 comdat align 2 {
entry:
  %this.addr = alloca ptr, align 8
  %sz.addr = alloca ptr, align 8
  %len = alloca i32, align 4
  store ptr %this, ptr %this.addr, align 8
  store ptr %sz, ptr %sz.addr, align 8
  %this1 = load ptr, ptr %this.addr, align 8
  %0 = load ptr, ptr %sz.addr, align 8
  %call = call i64 @strlen(ptr noundef %0) #19
  %conv = trunc i64 %call to i32
  store i32 %conv, ptr %len, align 4
  %1 = load i32, ptr %len, align 4
  %cmp = icmp sgt i32 %1, 1023
  br i1 %cmp, label %if.then, label %if.end

if.then:                                          ; preds = %entry
  store i32 1023, ptr %len, align 4
  br label %if.end

if.end:                                           ; preds = %if.then, %entry
  %2 = load i32, ptr %len, align 4
  %length = getelementptr inbounds %struct.aiString, ptr %this1, i32 0, i32 0
  store i32 %2, ptr %length, align 4
  %data = getelementptr inbounds %struct.aiString, ptr %this1, i32 0, i32 1
  %arraydecay = getelementptr inbounds [1024 x i8], ptr %data, i64 0, i64 0
  %3 = load ptr, ptr %sz.addr, align 8
  %4 = load i32, ptr %len, align 4
  %conv2 = sext i32 %4 to i64
  call void @llvm.memcpy.p0.p0.i64(ptr align 4 %arraydecay, ptr align 1 %3, i64 %conv2, i1 false)
  %data3 = getelementptr inbounds %struct.aiString, ptr %this1, i32 0, i32 1
  %5 = load i32, ptr %len, align 4
  %idxprom = sext i32 %5 to i64
  %arrayidx = getelementptr inbounds [1024 x i8], ptr %data3, i64 0, i64 %idxprom
  store i8 0, ptr %arrayidx, align 1
  ret void
}

; Function Attrs: mustprogress nounwind uwtable
define linkonce_odr hidden void @_ZN8aiStringC2Ev(ptr noundef nonnull align 4 dereferenceable(1028) %this) unnamed_addr #0 comdat align 2 {
entry:
  %this.addr = alloca ptr, align 8
  store ptr %this, ptr %this.addr, align 8
  %this1 = load ptr, ptr %this.addr, align 8
  %length = getelementptr inbounds %struct.aiString, ptr %this1, i32 0, i32 0
  store i32 0, ptr %length, align 4
  %data = getelementptr inbounds %struct.aiString, ptr %this1, i32 0, i32 1
  %arrayidx = getelementptr inbounds [1024 x i8], ptr %data, i64 0, i64 0
  store i8 0, ptr %arrayidx, align 4
  ret void
}

; Function Attrs: mustprogress uwtable
define hidden void @_ZN6Assimp11DXFImporter17GenerateMaterialsEP7aiSceneRNS_3DXF8FileDataE(ptr noundef nonnull align 8 dereferenceable(72) %this, ptr noundef %pScene, ptr noundef nonnull align 8 dereferenceable(24) %0) #3 align 2 personality ptr @__gxx_personality_v0 {
entry:
  %this.addr = alloca ptr, align 8
  %pScene.addr = alloca ptr, align 8
  %.addr = alloca ptr, align 8
  %pcMat = alloca ptr, align 8
  %exn.slot = alloca ptr, align 8
  %ehselector.slot = alloca i32, align 4
  %s = alloca %struct.aiString, align 4
  %clrDiffuse = alloca %class.aiColor4t, align 4
  %ref.tmp = alloca %class.aiColor4t, align 4
  %ref.tmp5 = alloca %class.aiColor4t, align 4
  store ptr %this, ptr %this.addr, align 8
  store ptr %pScene, ptr %pScene.addr, align 8
  store ptr %0, ptr %.addr, align 8
  %call = call noalias noundef nonnull ptr @_Znwm(i64 noundef 16) #20
  invoke void @_ZN10aiMaterialC1Ev(ptr noundef nonnull align 8 dereferenceable(16) %call)
          to label %invoke.cont unwind label %lpad

invoke.cont:                                      ; preds = %entry
  store ptr %call, ptr %pcMat, align 8
  call void @_ZN8aiStringC2Ev(ptr noundef nonnull align 4 dereferenceable(1028) %s) #17
  call void @_ZN8aiString3SetEPKc(ptr noundef nonnull align 4 dereferenceable(1028) %s, ptr noundef @.str.26)
  %1 = load ptr, ptr %pcMat, align 8
  %call2 = call noundef i32 @_ZN10aiMaterial11AddPropertyEPK8aiStringPKcjj(ptr noundef nonnull align 8 dereferenceable(16) %1, ptr noundef %s, ptr noundef @.str.27, i32 noundef 0, i32 noundef 0)
  call void @_ZN9aiColor4tIfEC2Effff(ptr noundef nonnull align 4 dereferenceable(16) %clrDiffuse, float noundef 0x3FECCCCCC0000000, float noundef 0x3FECCCCCC0000000, float noundef 0x3FECCCCCC0000000, float noundef 1.000000e+00)
  %2 = load ptr, ptr %pcMat, align 8
  %call3 = call noundef i32 @_ZN10aiMaterial11AddPropertyEPK9aiColor4tIfEjPKcjj(ptr noundef nonnull align 8 dereferenceable(16) %2, ptr noundef %clrDiffuse, i32 noundef 1, ptr noundef @.str.28, i32 noundef 0, i32 noundef 0)
  call void @_ZN9aiColor4tIfEC2Effff(ptr noundef nonnull align 4 dereferenceable(16) %ref.tmp, float noundef 1.000000e+00, float noundef 1.000000e+00, float noundef 1.000000e+00, float noundef 1.000000e+00)
  call void @llvm.memcpy.p0.p0.i64(ptr align 4 %clrDiffuse, ptr align 4 %ref.tmp, i64 16, i1 false)
  %3 = load ptr, ptr %pcMat, align 8
  %call4 = call noundef i32 @_ZN10aiMaterial11AddPropertyEPK9aiColor4tIfEjPKcjj(ptr noundef nonnull align 8 dereferenceable(16) %3, ptr noundef %clrDiffuse, i32 noundef 1, ptr noundef @.str.29, i32 noundef 0, i32 noundef 0)
  call void @_ZN9aiColor4tIfEC2Effff(ptr noundef nonnull align 4 dereferenceable(16) %ref.tmp5, float noundef 0x3FA99999A0000000, float noundef 0x3FA99999A0000000, float noundef 0x3FA99999A0000000, float noundef 1.000000e+00)
  call void @llvm.memcpy.p0.p0.i64(ptr align 4 %clrDiffuse, ptr align 4 %ref.tmp5, i64 16, i1 false)
  %4 = load ptr, ptr %pcMat, align 8
  %call6 = call noundef i32 @_ZN10aiMaterial11AddPropertyEPK9aiColor4tIfEjPKcjj(ptr noundef nonnull align 8 dereferenceable(16) %4, ptr noundef %clrDiffuse, i32 noundef 1, ptr noundef @.str.30, i32 noundef 0, i32 noundef 0)
  %5 = load ptr, ptr %pScene.addr, align 8
  %mNumMaterials = getelementptr inbounds %struct.aiScene, ptr %5, i32 0, i32 4
  store i32 1, ptr %mNumMaterials, align 8
  %call7 = call noalias noundef nonnull ptr @_Znam(i64 noundef 8) #20
  %6 = load ptr, ptr %pScene.addr, align 8
  %mMaterials = getelementptr inbounds %struct.aiScene, ptr %6, i32 0, i32 5
  store ptr %call7, ptr %mMaterials, align 8
  %7 = load ptr, ptr %pcMat, align 8
  %8 = load ptr, ptr %pScene.addr, align 8
  %mMaterials8 = getelementptr inbounds %struct.aiScene, ptr %8, i32 0, i32 5
  %9 = load ptr, ptr %mMaterials8, align 8
  %arrayidx = getelementptr inbounds ptr, ptr %9, i64 0
  store ptr %7, ptr %arrayidx, align 8
  ret void

lpad:                                             ; preds = %entry
  %10 = landingpad { ptr, i32 }
          cleanup
  %11 = extractvalue { ptr, i32 } %10, 0
  store ptr %11, ptr %exn.slot, align 8
  %12 = extractvalue { ptr, i32 } %10, 1
  store i32 %12, ptr %ehselector.slot, align 4
  call void @_ZdlPv(ptr noundef %call) #21
  br label %eh.resume

eh.resume:                                        ; preds = %lpad
  %exn = load ptr, ptr %exn.slot, align 8
  %sel = load i32, ptr %ehselector.slot, align 4
  %lpad.val = insertvalue { ptr, i32 } poison, ptr %exn, 0
  %lpad.val9 = insertvalue { ptr, i32 } %lpad.val, i32 %sel, 1
  resume { ptr, i32 } %lpad.val9
}