; Function Attrs: mustprogress uwtable
define hidden void @_ZN6Assimp11DXFImporter17GenerateMaterialsEP7aiSceneRNS_3DXF8FileDataE(ptr nocapture nonnull readnone align 8 %this, ptr nocapture noundef writeonly %pScene, ptr nocapture nonnull readnone align 8 %0) local_unnamed_addr #0 align 2 personality ptr @__gxx_personality_v0 {
entry:
  %s = alloca %struct.aiString, align 4
  %clrDiffuse = alloca %class.aiColor4t, align 16
  %call = tail call noalias noundef nonnull dereferenceable(16) ptr @_Znwm(i64 noundef 16) #21
  invoke void @_ZN10aiMaterialC1Ev(ptr noundef nonnull align 8 dereferenceable(16) %call)
          to label %invoke.cont unwind label %lpad

invoke.cont:                                      ; preds = %entry
  %data.i = getelementptr inbounds i8, ptr %s, i64 4
  store i32 15, ptr %s, align 4
  call void @llvm.memcpy.p0.p0.i64(ptr noundef nonnull align 4 dereferenceable(15) %data.i, ptr noundef nonnull align 1 dereferenceable(15) @.str.26, i64 15, i1 false)
  %arrayidx.i = getelementptr inbounds i8, ptr %s, i64 19
  store i8 0, ptr %arrayidx.i, align 1
  %call2 = call noundef i32 @_ZN10aiMaterial11AddPropertyEPK8aiStringPKcjj(ptr noundef nonnull align 8 dereferenceable(16) %call, ptr noundef nonnull %s, ptr noundef nonnull @.str.27, i32 noundef 0, i32 noundef 0)
  store <4 x float> <float 0x3FECCCCCC0000000, float 0x3FECCCCCC0000000, float 0x3FECCCCCC0000000, float 1.000000e+00>, ptr %clrDiffuse, align 16
  %call3.i = call noundef i32 @_ZN10aiMaterial17AddBinaryPropertyEPKvjPKcjj18aiPropertyTypeInfo(ptr noundef nonnull align 8 dereferenceable(16) %call, ptr noundef nonnull %clrDiffuse, i32 noundef 16, ptr noundef nonnull @.str.28, i32 noundef 0, i32 noundef 0, i32 noundef 1)
  store <4 x float> <float 1.000000e+00, float 1.000000e+00, float 1.000000e+00, float 1.000000e+00>, ptr %clrDiffuse, align 16
  %call3.i11 = call noundef i32 @_ZN10aiMaterial17AddBinaryPropertyEPKvjPKcjj18aiPropertyTypeInfo(ptr noundef nonnull align 8 dereferenceable(16) %call, ptr noundef nonnull %clrDiffuse, i32 noundef 16, ptr noundef nonnull @.str.29, i32 noundef 0, i32 noundef 0, i32 noundef 1)
  store <4 x float> <float 0x3FA99999A0000000, float 0x3FA99999A0000000, float 0x3FA99999A0000000, float 1.000000e+00>, ptr %clrDiffuse, align 16
  %call3.i15 = call noundef i32 @_ZN10aiMaterial17AddBinaryPropertyEPKvjPKcjj18aiPropertyTypeInfo(ptr noundef nonnull align 8 dereferenceable(16) %call, ptr noundef nonnull %clrDiffuse, i32 noundef 16, ptr noundef nonnull @.str.30, i32 noundef 0, i32 noundef 0, i32 noundef 1)
  %mNumMaterials = getelementptr inbounds i8, ptr %pScene, i64 32
  store i32 1, ptr %mNumMaterials, align 8
  %call7 = call noalias noundef nonnull dereferenceable(8) ptr @_Znam(i64 noundef 8) #21
  %mMaterials = getelementptr inbounds i8, ptr %pScene, i64 40
  store ptr %call7, ptr %mMaterials, align 8
  store ptr %call, ptr %call7, align 8
  ret void

lpad:                                             ; preds = %entry
  %1 = landingpad { ptr, i32 }
          cleanup
  tail call void @_ZdlPv(ptr noundef nonnull %call) #25
  resume { ptr, i32 } %1
}